; Function Attrs: nounwind uwtable
define dso_local void @strbuf_addbuf_percentquote(ptr noundef captures(none) %0, ptr noundef readonly captures(none) %1) local_unnamed_addr #3 {
  %3 = getelementptr inbounds nuw i8, ptr %1, i64 8
  %4 = load i64, ptr %3, align 8, !tbaa !16
  %.not = icmp eq i64 %4, 0
  br i1 %.not, label %._crit_edge, label %.lr.ph

.lr.ph:                                           ; preds = %2
  %5 = getelementptr inbounds nuw i8, ptr %1, i64 16
  %6 = getelementptr inbounds nuw i8, ptr %0, i64 8
  %7 = getelementptr inbounds nuw i8, ptr %0, i64 16
  br label %8

8:                                                ; preds = %.lr.ph, %strbuf_addch.exit17
  %.018 = phi i64 [ 0, %.lr.ph ], [ %60, %strbuf_addch.exit17 ]
  %9 = load ptr, ptr %5, align 8, !tbaa !12
  %10 = getelementptr inbounds nuw i8, ptr %9, i64 %.018
  %11 = load i8, ptr %10, align 1, !tbaa !4
  %12 = icmp eq i8 %11, 37
  br i1 %12, label %13, label %36

13:                                               ; preds = %8
  %14 = load i64, ptr %0, align 8, !tbaa !15
  %.not.i.i = icmp eq i64 %14, 0
  %15 = load i64, ptr %6, align 8, !tbaa !16
  br i1 %.not.i.i, label %strbuf_avail.exit.thread.i, label %strbuf_avail.exit.i

strbuf_avail.exit.i:                              ; preds = %13
  %.neg.i = add i64 %15, 1
  %.not.i = icmp eq i64 %14, %.neg.i
  br i1 %.not.i, label %.thread.i, label %strbuf_addch.exit

strbuf_avail.exit.thread.i:                       ; preds = %13
  %16 = icmp ugt i64 %15, -3
  br i1 %16, label %18, label %19

.thread.i:                                        ; preds = %strbuf_avail.exit.i
  %17 = icmp ugt i64 %15, -3
  br i1 %17, label %18, label %.thread8.i

18:                                               ; preds = %.thread.i, %strbuf_avail.exit.thread.i
  tail call void (ptr, ...) @die(ptr noundef nonnull @.str) #24
  unreachable

19:                                               ; preds = %strbuf_avail.exit.thread.i
  store ptr null, ptr %7, align 8, !tbaa !12
  br label %.thread8.i

.thread8.i:                                       ; preds = %19, %.thread.i
  %20 = add nuw i64 %15, 2
  %21 = icmp ugt i64 %20, %14
  br i1 %21, label %22, label %strbuf_addch.exit

22:                                               ; preds = %.thread8.i
  %23 = mul i64 %14, 3
  %24 = add i64 %23, 48
  %25 = lshr i64 %24, 1
  %..i.i = tail call i64 @llvm.umax.i64(i64 %25, i64 %20)
  store i64 %..i.i, ptr %0, align 8, !tbaa !15
  %26 = load ptr, ptr %7, align 8, !tbaa !12
  %27 = tail call ptr @xrealloc(ptr noundef %26, i64 noundef %..i.i) #25
  store ptr %27, ptr %7, align 8, !tbaa !12
  br i1 %.not.i.i, label %28, label %strbuf_addch.exit

28:                                               ; preds = %22
  store i8 0, ptr %27, align 1, !tbaa !4
  br label %strbuf_addch.exit

strbuf_addch.exit:                                ; preds = %strbuf_avail.exit.i, %.thread8.i, %22, %28
  %29 = load ptr, ptr %7, align 8, !tbaa !12
  %30 = load i64, ptr %6, align 8, !tbaa !16
  %31 = add i64 %30, 1
  store i64 %31, ptr %6, align 8, !tbaa !16
  %32 = getelementptr inbounds nuw i8, ptr %29, i64 %30
  store i8 37, ptr %32, align 1, !tbaa !4
  %33 = load ptr, ptr %7, align 8, !tbaa !12
  %34 = load i64, ptr %6, align 8, !tbaa !16
  %35 = getelementptr inbounds nuw i8, ptr %33, i64 %34
  store i8 0, ptr %35, align 1, !tbaa !4
  %.pre = load ptr, ptr %5, align 8, !tbaa !12
  %.phi.trans.insert = getelementptr inbounds nuw i8, ptr %.pre, i64 %.018
  %.pre19 = load i8, ptr %.phi.trans.insert, align 1, !tbaa !4
  br label %36

36:                                               ; preds = %strbuf_addch.exit, %8
  %37 = phi i8 [ %.pre19, %strbuf_addch.exit ], [ %11, %8 ]
  %38 = load i64, ptr %0, align 8, !tbaa !15
  %.not.i.i9 = icmp eq i64 %38, 0
  %39 = load i64, ptr %6, align 8, !tbaa !16
  br i1 %.not.i.i9, label %strbuf_avail.exit.thread.i16, label %strbuf_avail.exit.i10

strbuf_avail.exit.i10:                            ; preds = %36
  %.neg.i11 = add i64 %39, 1
  %.not.i12 = icmp eq i64 %38, %.neg.i11
  br i1 %.not.i12, label %.thread.i13, label %strbuf_addch.exit17

strbuf_avail.exit.thread.i16:                     ; preds = %36
  %40 = icmp ugt i64 %39, -3
  br i1 %40, label %42, label %43

.thread.i13:                                      ; preds = %strbuf_avail.exit.i10
  %41 = icmp ugt i64 %39, -3
  br i1 %41, label %42, label %.thread8.i14

42:                                               ; preds = %.thread.i13, %strbuf_avail.exit.thread.i16
  tail call void (ptr, ...) @die(ptr noundef nonnull @.str) #24
  unreachable

43:                                               ; preds = %strbuf_avail.exit.thread.i16
  store ptr null, ptr %7, align 8, !tbaa !12
  br label %.thread8.i14

.thread8.i14:                                     ; preds = %43, %.thread.i13
  %44 = add nuw i64 %39, 2
  %45 = icmp ugt i64 %44, %38
  br i1 %45, label %46, label %strbuf_addch.exit17

46:                                               ; preds = %.thread8.i14
  %47 = mul i64 %38, 3
  %48 = add i64 %47, 48
  %49 = lshr i64 %48, 1
  %..i.i15 = tail call i64 @llvm.umax.i64(i64 %49, i64 %44)
  store i64 %..i.i15, ptr %0, align 8, !tbaa !15
  %50 = load ptr, ptr %7, align 8, !tbaa !12
  %51 = tail call ptr @xrealloc(ptr noundef %50, i64 noundef %..i.i15) #25
  store ptr %51, ptr %7, align 8, !tbaa !12
  br i1 %.not.i.i9, label %52, label %strbuf_addch.exit17

52:                                               ; preds = %46
  store i8 0, ptr %51, align 1, !tbaa !4
  br label %strbuf_addch.exit17

strbuf_addch.exit17:                              ; preds = %strbuf_avail.exit.i10, %.thread8.i14, %46, %52
  %53 = load ptr, ptr %7, align 8, !tbaa !12
  %54 = load i64, ptr %6, align 8, !tbaa !16
  %55 = add i64 %54, 1
  store i64 %55, ptr %6, align 8, !tbaa !16
  %56 = getelementptr inbounds nuw i8, ptr %53, i64 %54
  store i8 %37, ptr %56, align 1, !tbaa !4
  %57 = load ptr, ptr %7, align 8, !tbaa !12
  %58 = load i64, ptr %6, align 8, !tbaa !16
  %59 = getelementptr inbounds nuw i8, ptr %57, i64 %58
  store i8 0, ptr %59, align 1, !tbaa !4
  %60 = add nuw i64 %.018, 1
  %exitcond.not = icmp eq i64 %60, %4
  br i1 %exitcond.not, label %._crit_edge, label %8, !llvm.loop !37

._crit_edge:                                      ; preds = %strbuf_addch.exit17, %2
  ret void
}